target datalayout = "e-m:e-p270:32:32-p271:32:32-p272:64:64-i64:64-i128:128-f80:128-n8:16:32:64-S128"
target triple = "x86_64-pc-linux-gnu"

%struct.string_list = type { ptr, i64, i64, i8, ptr }
%struct.mailmap_entry = type { ptr, ptr, %struct.string_list }

; Function Attrs: nounwind uwtable
define internal void @free_mailmap_entry(ptr noundef %0, ptr noundef %1) #0 {
  %3 = alloca ptr, align 8
  %4 = alloca ptr, align 8
  %5 = alloca ptr, align 8
  store ptr %0, ptr %3, align 8, !tbaa !29
  store ptr %1, ptr %4, align 8, !tbaa !9
  call void @llvm.lifetime.start.p0(i64 8, ptr %5) #7
  %6 = load ptr, ptr %3, align 8, !tbaa !29
  store ptr %6, ptr %5, align 8, !tbaa !30
  %7 = load ptr, ptr %5, align 8, !tbaa !30
  %8 = getelementptr inbounds nuw %struct.mailmap_entry, ptr %7, i32 0, i32 0
  %9 = load ptr, ptr %8, align 8, !tbaa !32
  call void @free(ptr noundef %9) #7
  %10 = load ptr, ptr %5, align 8, !tbaa !30
  %11 = getelementptr inbounds nuw %struct.mailmap_entry, ptr %10, i32 0, i32 1
  %12 = load ptr, ptr %11, align 8, !tbaa !34
  call void @free(ptr noundef %12) #7
  %13 = load ptr, ptr %5, align 8, !tbaa !30
  %14 = getelementptr inbounds nuw %struct.mailmap_entry, ptr %13, i32 0, i32 2
  %15 = getelementptr inbounds nuw %struct.string_list, ptr %14, i32 0, i32 3
  %16 = load i8, ptr %15, align 8
  %17 = and i8 %16, -2
  %18 = or i8 %17, 1
  store i8 %18, ptr %15, align 8
  %19 = load ptr, ptr %5, align 8, !tbaa !30
  %20 = getelementptr inbounds nuw %struct.mailmap_entry, ptr %19, i32 0, i32 2
  call void @string_list_clear_func(ptr noundef %20, ptr noundef @free_mailmap_info)
  %21 = load ptr, ptr %5, align 8, !tbaa !30
  call void @free(ptr noundef %21) #7
  call void @llvm.lifetime.end.p0(i64 8, ptr %5) #7
  ret void
}