; Function Attrs: nounwind uwtable
define internal void @free_mailmap_entry(ptr noundef %0, ptr readnone captures(none) %1) #0 {
  %3 = load ptr, ptr %0, align 8, !tbaa !22
  tail call void @free(ptr noundef %3) #11
  %4 = getelementptr inbounds nuw i8, ptr %0, i64 8
  %5 = load ptr, ptr %4, align 8, !tbaa !23
  tail call void @free(ptr noundef %5) #11
  %6 = getelementptr inbounds nuw i8, ptr %0, i64 16
  %7 = getelementptr inbounds nuw i8, ptr %0, i64 40
  %8 = load i8, ptr %7, align 8
  %9 = or i8 %8, 1
  store i8 %9, ptr %7, align 8
  tail call void @string_list_clear_func(ptr noundef nonnull %6, ptr noundef nonnull @free_mailmap_info) #11
  tail call void @free(ptr noundef %0) #11
  ret void
}